target datalayout = "e-m:e-p270:32:32-p271:32:32-p272:64:64-i64:64-i128:128-f80:128-n8:16:32:64-S128"
target triple = "x86_64-pc-linux-gnu"

%struct.JSValue = type { %union.JSValueUnion, i64 }
%union.JSValueUnion = type { double }
%struct.JSRefCountHeader = type { i32 }
%struct.JSThreadState = type { %struct.list_head, %struct.list_head, %struct.list_head, %struct.list_head, i32, i32, ptr, ptr }
%struct.list_head = type { ptr, ptr }

@.str.68 = private unnamed_addr constant [18 x i8] c"backtrace_barrier\00", align 1
@.str.69 = private unnamed_addr constant [6 x i8] c"async\00", align 1
@.str.70 = private unnamed_addr constant [13 x i8] c"<evalScript>\00", align 1
@os_pending_signals = internal global i64 0, align 8

; Function Attrs: nounwind uwtable
define internal void @JS_FreeValue(ptr noundef %0, i64 %1, i64 %2) #0 {
  %4 = alloca %struct.JSValue, align 8
  %5 = alloca ptr, align 8
  %6 = alloca ptr, align 8
  %7 = getelementptr inbounds { i64, i64 }, ptr %4, i32 0, i32 0
  store i64 %1, ptr %7, align 8
  %8 = getelementptr inbounds { i64, i64 }, ptr %4, i32 0, i32 1
  store i64 %2, ptr %8, align 8
  store ptr %0, ptr %5, align 8
  %9 = getelementptr inbounds %struct.JSValue, ptr %4, i32 0, i32 1
  %10 = load i64, ptr %9, align 8
  %11 = trunc i64 %10 to i32
  %12 = icmp uge i32 %11, -11
  br i1 %12, label %13, label %28

13:                                               ; preds = %3
  %14 = getelementptr inbounds %struct.JSValue, ptr %4, i32 0, i32 0
  %15 = load ptr, ptr %14, align 8
  store ptr %15, ptr %6, align 8
  %16 = load ptr, ptr %6, align 8
  %17 = getelementptr inbounds %struct.JSRefCountHeader, ptr %16, i32 0, i32 0
  %18 = load i32, ptr %17, align 4
  %19 = add i32 %18, -1
  store i32 %19, ptr %17, align 4
  %20 = icmp sle i32 %19, 0
  br i1 %20, label %21, label %27

21:                                               ; preds = %13
  %22 = load ptr, ptr %5, align 8
  %23 = getelementptr inbounds { i64, i64 }, ptr %4, i32 0, i32 0
  %24 = load i64, ptr %23, align 8
  %25 = getelementptr inbounds { i64, i64 }, ptr %4, i32 0, i32 1
  %26 = load i64, ptr %25, align 8
  call void @__JS_FreeValue(ptr noundef %22, i64 %24, i64 %26)
  br label %27

27:                                               ; preds = %21, %13
  br label %28

28:                                               ; preds = %27, %3
  ret void
}

; Function Attrs: nounwind uwtable
define internal i32 @JS_IsUndefined(i64 %0, i64 %1) #0 {
  %3 = alloca %struct.JSValue, align 8
  %4 = getelementptr inbounds { i64, i64 }, ptr %3, i32 0, i32 0
  store i64 %0, ptr %4, align 8
  %5 = getelementptr inbounds { i64, i64 }, ptr %3, i32 0, i32 1
  store i64 %1, ptr %5, align 8
  %6 = getelementptr inbounds %struct.JSValue, ptr %3, i32 0, i32 1
  %7 = load i64, ptr %6, align 8
  %8 = trunc i64 %7 to i32
  %9 = icmp eq i32 %8, 3
  %10 = zext i1 %9 to i32
  ret i32 %10
}

; Function Attrs: nounwind uwtable
define internal i32 @JS_IsException(i64 %0, i64 %1) #0 {
  %3 = alloca %struct.JSValue, align 8
  %4 = getelementptr inbounds { i64, i64 }, ptr %3, i32 0, i32 0
  store i64 %0, ptr %4, align 8
  %5 = getelementptr inbounds { i64, i64 }, ptr %3, i32 0, i32 1
  store i64 %1, ptr %5, align 8
  %6 = getelementptr inbounds %struct.JSValue, ptr %3, i32 0, i32 1
  %7 = load i64, ptr %6, align 8
  %8 = trunc i64 %7 to i32
  %9 = icmp eq i32 %8, 6
  %10 = xor i1 %9, true
  %11 = xor i1 %10, true
  %12 = zext i1 %11 to i32
  %13 = sext i32 %12 to i64
  %14 = trunc i64 %13 to i32
  ret i32 %14
}

; Function Attrs: nounwind uwtable
define internal ptr @JS_ToCStringLen(ptr noundef %0, ptr noundef %1, i64 %2, i64 %3) #0 {
  %5 = alloca %struct.JSValue, align 8
  %6 = alloca ptr, align 8
  %7 = alloca ptr, align 8
  %8 = getelementptr inbounds { i64, i64 }, ptr %5, i32 0, i32 0
  store i64 %2, ptr %8, align 8
  %9 = getelementptr inbounds { i64, i64 }, ptr %5, i32 0, i32 1
  store i64 %3, ptr %9, align 8
  store ptr %0, ptr %6, align 8
  store ptr %1, ptr %7, align 8
  %10 = load ptr, ptr %6, align 8
  %11 = load ptr, ptr %7, align 8
  %12 = getelementptr inbounds { i64, i64 }, ptr %5, i32 0, i32 0
  %13 = load i64, ptr %12, align 8
  %14 = getelementptr inbounds { i64, i64 }, ptr %5, i32 0, i32 1
  %15 = load i64, ptr %14, align 8
  %16 = call ptr @JS_ToCStringLen2(ptr noundef %10, ptr noundef %11, i64 %13, i64 %15, i32 noundef 0)
  ret ptr %16
}

; Function Attrs: nounwind uwtable
define internal i32 @get_bool_option(ptr noundef %0, ptr noundef %1, i64 %2, i64 %3, ptr noundef %4) #0 {
  %6 = alloca i32, align 4
  %7 = alloca %struct.JSValue, align 8
  %8 = alloca ptr, align 8
  %9 = alloca ptr, align 8
  %10 = alloca ptr, align 8
  %11 = alloca %struct.JSValue, align 8
  %12 = alloca %struct.JSValue, align 8
  %13 = getelementptr inbounds { i64, i64 }, ptr %7, i32 0, i32 0
  store i64 %2, ptr %13, align 8
  %14 = getelementptr inbounds { i64, i64 }, ptr %7, i32 0, i32 1
  store i64 %3, ptr %14, align 8
  store ptr %0, ptr %8, align 8
  store ptr %1, ptr %9, align 8
  store ptr %4, ptr %10, align 8
  %15 = load ptr, ptr %8, align 8
  %16 = load ptr, ptr %10, align 8
  %17 = getelementptr inbounds { i64, i64 }, ptr %7, i32 0, i32 0
  %18 = load i64, ptr %17, align 8
  %19 = getelementptr inbounds { i64, i64 }, ptr %7, i32 0, i32 1
  %20 = load i64, ptr %19, align 8
  %21 = call { i64, i64 } @JS_GetPropertyStr(ptr noundef %15, i64 %18, i64 %20, ptr noundef %16)
  %22 = getelementptr inbounds { i64, i64 }, ptr %12, i32 0, i32 0
  %23 = extractvalue { i64, i64 } %21, 0
  store i64 %23, ptr %22, align 8
  %24 = getelementptr inbounds { i64, i64 }, ptr %12, i32 0, i32 1
  %25 = extractvalue { i64, i64 } %21, 1
  store i64 %25, ptr %24, align 8
  call void @llvm.memcpy.p0.p0.i64(ptr align 8 %11, ptr align 8 %12, i64 16, i1 false)
  %26 = getelementptr inbounds { i64, i64 }, ptr %11, i32 0, i32 0
  %27 = load i64, ptr %26, align 8
  %28 = getelementptr inbounds { i64, i64 }, ptr %11, i32 0, i32 1
  %29 = load i64, ptr %28, align 8
  %30 = call i32 @JS_IsException(i64 %27, i64 %29)
  %31 = icmp ne i32 %30, 0
  br i1 %31, label %32, label %33

32:                                               ; preds = %5
  store i32 -1, ptr %6, align 4
  br label %54

33:                                               ; preds = %5
  %34 = getelementptr inbounds { i64, i64 }, ptr %11, i32 0, i32 0
  %35 = load i64, ptr %34, align 8
  %36 = getelementptr inbounds { i64, i64 }, ptr %11, i32 0, i32 1
  %37 = load i64, ptr %36, align 8
  %38 = call i32 @JS_IsUndefined(i64 %35, i64 %37)
  %39 = icmp ne i32 %38, 0
  br i1 %39, label %48, label %40

40:                                               ; preds = %33
  %41 = load ptr, ptr %8, align 8
  %42 = getelementptr inbounds { i64, i64 }, ptr %11, i32 0, i32 0
  %43 = load i64, ptr %42, align 8
  %44 = getelementptr inbounds { i64, i64 }, ptr %11, i32 0, i32 1
  %45 = load i64, ptr %44, align 8
  %46 = call i32 @JS_ToBool(ptr noundef %41, i64 %43, i64 %45)
  %47 = load ptr, ptr %9, align 8
  store i32 %46, ptr %47, align 4
  br label %48

48:                                               ; preds = %40, %33
  %49 = load ptr, ptr %8, align 8
  %50 = getelementptr inbounds { i64, i64 }, ptr %11, i32 0, i32 0
  %51 = load i64, ptr %50, align 8
  %52 = getelementptr inbounds { i64, i64 }, ptr %11, i32 0, i32 1
  %53 = load i64, ptr %52, align 8
  call void @JS_FreeValue(ptr noundef %49, i64 %51, i64 %53)
  store i32 0, ptr %6, align 4
  br label %54

54:                                               ; preds = %48, %32
  %55 = load i32, ptr %6, align 4
  ret i32 %55
}

; Function Attrs: nounwind uwtable
define internal { i64, i64 } @js_evalScript(ptr noundef %0, i64 %1, i64 %2, i32 noundef %3, ptr noundef %4) #0 {
  %6 = alloca %struct.JSValue, align 8
  %7 = alloca %struct.JSValue, align 8
  %8 = alloca ptr, align 8
  %9 = alloca i32, align 4
  %10 = alloca ptr, align 8
  %11 = alloca ptr, align 8
  %12 = alloca ptr, align 8
  %13 = alloca ptr, align 8
  %14 = alloca i64, align 8
  %15 = alloca %struct.JSValue, align 8
  %16 = alloca %struct.JSValue, align 8
  %17 = alloca i32, align 4
  %18 = alloca i32, align 4
  %19 = alloca i32, align 4
  %20 = alloca %struct.JSValue, align 8
  %21 = getelementptr inbounds { i64, i64 }, ptr %7, i32 0, i32 0
  store i64 %1, ptr %21, align 8
  %22 = getelementptr inbounds { i64, i64 }, ptr %7, i32 0, i32 1
  store i64 %2, ptr %22, align 8
  store ptr %0, ptr %8, align 8
  store i32 %3, ptr %9, align 4
  store ptr %4, ptr %10, align 8
  %23 = load ptr, ptr %8, align 8
  %24 = call ptr @JS_GetRuntime(ptr noundef %23)
  store ptr %24, ptr %11, align 8
  %25 = load ptr, ptr %11, align 8
  %26 = call ptr @JS_GetRuntimeOpaque(ptr noundef %25)
  store ptr %26, ptr %12, align 8
  store i32 0, ptr %17, align 4
  store i32 0, ptr %18, align 4
  %27 = load i32, ptr %9, align 4
  %28 = icmp sge i32 %27, 2
  br i1 %28, label %29, label %54

29:                                               ; preds = %5
  %30 = load ptr, ptr %10, align 8
  %31 = getelementptr %struct.JSValue, ptr %30, i64 1
  call void @llvm.memcpy.p0.p0.i64(ptr align 8 %16, ptr align 8 %31, i64 16, i1 false)
  %32 = load ptr, ptr %8, align 8
  %33 = getelementptr inbounds { i64, i64 }, ptr %16, i32 0, i32 0
  %34 = load i64, ptr %33, align 8
  %35 = getelementptr inbounds { i64, i64 }, ptr %16, i32 0, i32 1
  %36 = load i64, ptr %35, align 8
  %37 = call i32 @get_bool_option(ptr noundef %32, ptr noundef %17, i64 %34, i64 %36, ptr noundef @.str.68)
  %38 = icmp ne i32 %37, 0
  br i1 %38, label %39, label %42

39:                                               ; preds = %29
  %40 = getelementptr inbounds %struct.JSValue, ptr %6, i32 0, i32 0
  store i32 0, ptr %40, align 8
  %41 = getelementptr inbounds %struct.JSValue, ptr %6, i32 0, i32 1
  store i64 6, ptr %41, align 8
  br label %131

42:                                               ; preds = %29
  %43 = load ptr, ptr %8, align 8
  %44 = getelementptr inbounds { i64, i64 }, ptr %16, i32 0, i32 0
  %45 = load i64, ptr %44, align 8
  %46 = getelementptr inbounds { i64, i64 }, ptr %16, i32 0, i32 1
  %47 = load i64, ptr %46, align 8
  %48 = call i32 @get_bool_option(ptr noundef %43, ptr noundef %18, i64 %45, i64 %47, ptr noundef @.str.69)
  %49 = icmp ne i32 %48, 0
  br i1 %49, label %50, label %53

50:                                               ; preds = %42
  %51 = getelementptr inbounds %struct.JSValue, ptr %6, i32 0, i32 0
  store i32 0, ptr %51, align 8
  %52 = getelementptr inbounds %struct.JSValue, ptr %6, i32 0, i32 1
  store i64 6, ptr %52, align 8
  br label %131

53:                                               ; preds = %42
  br label %54

54:                                               ; preds = %53, %5
  %55 = load ptr, ptr %8, align 8
  %56 = load ptr, ptr %10, align 8
  %57 = getelementptr %struct.JSValue, ptr %56, i64 0
  %58 = getelementptr inbounds { i64, i64 }, ptr %57, i32 0, i32 0
  %59 = load i64, ptr %58, align 8
  %60 = getelementptr inbounds { i64, i64 }, ptr %57, i32 0, i32 1
  %61 = load i64, ptr %60, align 8
  %62 = call ptr @JS_ToCStringLen(ptr noundef %55, ptr noundef %14, i64 %59, i64 %61)
  store ptr %62, ptr %13, align 8
  %63 = load ptr, ptr %13, align 8
  %64 = icmp ne ptr %63, null
  br i1 %64, label %68, label %65

65:                                               ; preds = %54
  %66 = getelementptr inbounds %struct.JSValue, ptr %6, i32 0, i32 0
  store i32 0, ptr %66, align 8
  %67 = getelementptr inbounds %struct.JSValue, ptr %6, i32 0, i32 1
  store i64 6, ptr %67, align 8
  br label %131

68:                                               ; preds = %54
  %69 = load ptr, ptr %12, align 8
  %70 = getelementptr inbounds %struct.JSThreadState, ptr %69, i32 0, i32 6
  %71 = load ptr, ptr %70, align 8
  %72 = icmp ne ptr %71, null
  br i1 %72, label %82, label %73

73:                                               ; preds = %68
  %74 = load ptr, ptr %12, align 8
  %75 = getelementptr inbounds %struct.JSThreadState, ptr %74, i32 0, i32 4
  %76 = load i32, ptr %75, align 8
  %77 = add i32 %76, 1
  store i32 %77, ptr %75, align 8
  %78 = icmp eq i32 %77, 1
  br i1 %78, label %79, label %82

79:                                               ; preds = %73
  %80 = load ptr, ptr %8, align 8
  %81 = call ptr @JS_GetRuntime(ptr noundef %80)
  call void @JS_SetInterruptHandler(ptr noundef %81, ptr noundef @interrupt_handler, ptr noundef null)
  br label %82

82:                                               ; preds = %79, %73, %68
  store i32 0, ptr %19, align 4
  %83 = load i32, ptr %17, align 4
  %84 = icmp ne i32 %83, 0
  br i1 %84, label %85, label %88

85:                                               ; preds = %82
  %86 = load i32, ptr %19, align 4
  %87 = or i32 %86, 64
  store i32 %87, ptr %19, align 4
  br label %88

88:                                               ; preds = %85, %82
  %89 = load i32, ptr %18, align 4
  %90 = icmp ne i32 %89, 0
  br i1 %90, label %91, label %94

91:                                               ; preds = %88
  %92 = load i32, ptr %19, align 4
  %93 = or i32 %92, 128
  store i32 %93, ptr %19, align 4
  br label %94

94:                                               ; preds = %91, %88
  %95 = load ptr, ptr %8, align 8
  %96 = load ptr, ptr %13, align 8
  %97 = load i64, ptr %14, align 8
  %98 = load i32, ptr %19, align 4
  %99 = call { i64, i64 } @JS_Eval(ptr noundef %95, ptr noundef %96, i64 noundef %97, ptr noundef @.str.70, i32 noundef %98)
  %100 = getelementptr inbounds { i64, i64 }, ptr %20, i32 0, i32 0
  %101 = extractvalue { i64, i64 } %99, 0
  store i64 %101, ptr %100, align 8
  %102 = getelementptr inbounds { i64, i64 }, ptr %20, i32 0, i32 1
  %103 = extractvalue { i64, i64 } %99, 1
  store i64 %103, ptr %102, align 8
  call void @llvm.memcpy.p0.p0.i64(ptr align 8 %15, ptr align 8 %20, i64 16, i1 false)
  %104 = load ptr, ptr %8, align 8
  %105 = load ptr, ptr %13, align 8
  call void @JS_FreeCString(ptr noundef %104, ptr noundef %105)
  %106 = load ptr, ptr %12, align 8
  %107 = getelementptr inbounds %struct.JSThreadState, ptr %106, i32 0, i32 6
  %108 = load ptr, ptr %107, align 8
  %109 = icmp ne ptr %108, null
  br i1 %109, label %130, label %110

110:                                              ; preds = %94
  %111 = load ptr, ptr %12, align 8
  %112 = getelementptr inbounds %struct.JSThreadState, ptr %111, i32 0, i32 4
  %113 = load i32, ptr %112, align 8
  %114 = add i32 %113, -1
  store i32 %114, ptr %112, align 8
  %115 = icmp eq i32 %114, 0
  br i1 %115, label %116, label %130

116:                                              ; preds = %110
  %117 = load ptr, ptr %8, align 8
  %118 = call ptr @JS_GetRuntime(ptr noundef %117)
  call void @JS_SetInterruptHandler(ptr noundef %118, ptr noundef null, ptr noundef null)
  %119 = load i64, ptr @os_pending_signals, align 8
  %120 = and i64 %119, -5
  store i64 %120, ptr @os_pending_signals, align 8
  %121 = getelementptr inbounds { i64, i64 }, ptr %15, i32 0, i32 0
  %122 = load i64, ptr %121, align 8
  %123 = getelementptr inbounds { i64, i64 }, ptr %15, i32 0, i32 1
  %124 = load i64, ptr %123, align 8
  %125 = call i32 @JS_IsException(i64 %122, i64 %124)
  %126 = icmp ne i32 %125, 0
  br i1 %126, label %127, label %129

127:                                              ; preds = %116
  %128 = load ptr, ptr %8, align 8
  call void @JS_ResetUncatchableError(ptr noundef %128)
  br label %129

129:                                              ; preds = %127, %116
  br label %130

130:                                              ; preds = %129, %110, %94
  call void @llvm.memcpy.p0.p0.i64(ptr align 8 %6, ptr align 8 %15, i64 16, i1 false)
  br label %131

131:                                              ; preds = %130, %65, %50, %39
  %132 = load { i64, i64 }, ptr %6, align 8
  ret { i64, i64 } %132
}