; Function Attrs: nounwind uwtable
define internal { i64, i64 } @js_evalScript(ptr noundef %0, i64 %1, i64 %2, i32 noundef %3, ptr nocapture noundef readonly %4) #0 {
  %6 = alloca i64, align 8
  %7 = tail call ptr @JS_GetRuntime(ptr noundef %0) #29
  %8 = tail call ptr @JS_GetRuntimeOpaque(ptr noundef %7) #29
  %9 = icmp sgt i32 %3, 1
  br i1 %9, label %10, label %get_bool_option.exit43.thread

10:                                               ; preds = %5
  %11 = getelementptr i8, ptr %4, i64 16
  %.sroa.03.0.copyload = load i64, ptr %11, align 8
  %.sroa.3.0..sroa_idx = getelementptr i8, ptr %4, i64 24
  %.sroa.3.0.copyload = load i64, ptr %.sroa.3.0..sroa_idx, align 8
  %12 = tail call { i64, i64 } @JS_GetPropertyStr(ptr noundef %0, i64 %.sroa.03.0.copyload, i64 %.sroa.3.0.copyload, ptr noundef nonnull @.str.68) #29
  %13 = extractvalue { i64, i64 } %12, 0
  %14 = extractvalue { i64, i64 } %12, 1
  %trunc.i = trunc i64 %14 to i32
  switch i32 %trunc.i, label %15 [
    i32 6, label %get_bool_option.exit
    i32 3, label %.thread.i
  ]

15:                                               ; preds = %10
  %16 = tail call i32 @JS_ToBool(ptr noundef %0, i64 %13, i64 %14) #29
  %17 = icmp ugt i32 %trunc.i, -12
  br i1 %17, label %18, label %.thread.i

18:                                               ; preds = %15
  %19 = inttoptr i64 %13 to ptr
  %20 = load i32, ptr %19, align 4
  %21 = add i32 %20, -1
  store i32 %21, ptr %19, align 4
  %22 = icmp slt i32 %21, 1
  br i1 %22, label %23, label %.thread.i

23:                                               ; preds = %18
  tail call void @__JS_FreeValue(ptr noundef %0, i64 %13, i64 %14) #29
  br label %.thread.i

.thread.i:                                        ; preds = %10, %15, %18, %23
  %.046.ph = phi i32 [ %16, %15 ], [ %16, %18 ], [ %16, %23 ], [ 0, %10 ]
  %24 = tail call { i64, i64 } @JS_GetPropertyStr(ptr noundef %0, i64 %.sroa.03.0.copyload, i64 %.sroa.3.0.copyload, ptr noundef nonnull @.str.69) #29
  %25 = extractvalue { i64, i64 } %24, 0
  %26 = extractvalue { i64, i64 } %24, 1
  %trunc.i40 = trunc i64 %26 to i32
  switch i32 %trunc.i40, label %27 [
    i32 6, label %get_bool_option.exit
    i32 3, label %get_bool_option.exit43.thread
  ]

27:                                               ; preds = %.thread.i
  %28 = tail call i32 @JS_ToBool(ptr noundef %0, i64 %25, i64 %26) #29
  %29 = icmp ugt i32 %trunc.i40, -12
  br i1 %29, label %30, label %get_bool_option.exit43.thread

30:                                               ; preds = %27
  %31 = inttoptr i64 %25 to ptr
  %32 = load i32, ptr %31, align 4
  %33 = add i32 %32, -1
  store i32 %33, ptr %31, align 4
  %34 = icmp slt i32 %33, 1
  br i1 %34, label %35, label %get_bool_option.exit43.thread

35:                                               ; preds = %30
  tail call void @__JS_FreeValue(ptr noundef %0, i64 %25, i64 %26) #29
  br label %get_bool_option.exit43.thread

get_bool_option.exit43.thread:                    ; preds = %.thread.i, %35, %30, %27, %5
  %.147 = phi i32 [ 0, %5 ], [ %.046.ph, %27 ], [ %.046.ph, %30 ], [ %.046.ph, %35 ], [ %.046.ph, %.thread.i ]
  %.145 = phi i32 [ 0, %5 ], [ %28, %27 ], [ %28, %30 ], [ %28, %35 ], [ 0, %.thread.i ]
  %36 = load i64, ptr %4, align 8
  %37 = getelementptr inbounds i8, ptr %4, i64 8
  %38 = load i64, ptr %37, align 8
  %39 = call ptr @JS_ToCStringLen2(ptr noundef %0, ptr noundef nonnull %6, i64 %36, i64 %38, i32 noundef 0) #29
  %.not34 = icmp eq ptr %39, null
  br i1 %.not34, label %get_bool_option.exit, label %40

40:                                               ; preds = %get_bool_option.exit43.thread
  %41 = getelementptr inbounds i8, ptr %8, i64 72
  %42 = load ptr, ptr %41, align 8
  %.not35 = icmp eq ptr %42, null
  br i1 %.not35, label %43, label %50

43:                                               ; preds = %40
  %44 = getelementptr inbounds i8, ptr %8, i64 64
  %45 = load i32, ptr %44, align 8
  %46 = add i32 %45, 1
  store i32 %46, ptr %44, align 8
  %47 = icmp eq i32 %45, 0
  br i1 %47, label %48, label %50

48:                                               ; preds = %43
  %49 = call ptr @JS_GetRuntime(ptr noundef %0) #29
  call void @JS_SetInterruptHandler(ptr noundef %49, ptr noundef nonnull @interrupt_handler, ptr noundef null) #29
  br label %50

50:                                               ; preds = %48, %43, %40
  %.not36 = icmp eq i32 %.147, 0
  %spec.select = select i1 %.not36, i32 0, i32 64
  %.not37 = icmp eq i32 %.145, 0
  %51 = or disjoint i32 %spec.select, 128
  %.1 = select i1 %.not37, i32 %spec.select, i32 %51
  %52 = load i64, ptr %6, align 8
  %53 = call { i64, i64 } @JS_Eval(ptr noundef %0, ptr noundef nonnull %39, i64 noundef %52, ptr noundef nonnull @.str.70, i32 noundef %.1) #29
  %54 = extractvalue { i64, i64 } %53, 0
  %55 = extractvalue { i64, i64 } %53, 1
  call void @JS_FreeCString(ptr noundef %0, ptr noundef nonnull %39) #29
  %56 = load ptr, ptr %41, align 8
  %.not38 = icmp eq ptr %56, null
  br i1 %.not38, label %57, label %68

57:                                               ; preds = %50
  %58 = getelementptr inbounds i8, ptr %8, i64 64
  %59 = load i32, ptr %58, align 8
  %60 = add i32 %59, -1
  store i32 %60, ptr %58, align 8
  %61 = icmp eq i32 %60, 0
  br i1 %61, label %62, label %68

62:                                               ; preds = %57
  %63 = call ptr @JS_GetRuntime(ptr noundef %0) #29
  call void @JS_SetInterruptHandler(ptr noundef %63, ptr noundef null, ptr noundef null) #29
  %64 = load i64, ptr @os_pending_signals, align 8
  %65 = and i64 %64, -5
  store i64 %65, ptr @os_pending_signals, align 8
  %66 = and i64 %55, 4294967295
  %.not = icmp eq i64 %66, 6
  br i1 %.not, label %67, label %68

67:                                               ; preds = %62
  call void @JS_ResetUncatchableError(ptr noundef %0) #29
  br label %68

68:                                               ; preds = %62, %67, %57, %50
  %.sroa.5.0.extract.shift = and i64 %54, -4294967296
  %69 = and i64 %54, 4294967295
  br label %get_bool_option.exit

get_bool_option.exit:                             ; preds = %.thread.i, %10, %get_bool_option.exit43.thread, %68
  %.sroa.028.0 = phi i64 [ %69, %68 ], [ 0, %get_bool_option.exit43.thread ], [ 0, %10 ], [ 0, %.thread.i ]
  %.sroa.5.sroa.0.0 = phi i64 [ %.sroa.5.0.extract.shift, %68 ], [ 0, %get_bool_option.exit43.thread ], [ 0, %10 ], [ 0, %.thread.i ]
  %.sroa.5.sroa.2.0 = phi i64 [ %55, %68 ], [ 6, %get_bool_option.exit43.thread ], [ 6, %10 ], [ 6, %.thread.i ]
  %.sroa.028.0.insert.insert = or disjoint i64 %.sroa.5.sroa.0.0, %.sroa.028.0
  %.fca.0.insert = insertvalue { i64, i64 } poison, i64 %.sroa.028.0.insert.insert, 0
  %.fca.1.insert = insertvalue { i64, i64 } %.fca.0.insert, i64 %.sroa.5.sroa.2.0, 1
  ret { i64, i64 } %.fca.1.insert
}